target datalayout = "e-m:e-p270:32:32-p271:32:32-p272:64:64-i64:64-i128:128-f80:128-n8:16:32:64-S128"
target triple = "x86_64-unknown-linux-gnu"

%"class.std::tuple.121" = type { %"struct.std::_Tuple_impl.122" }
%"struct.std::_Tuple_impl.122" = type { %"struct.std::_Tuple_impl.123", %"struct.std::_Head_base.125" }
%"struct.std::_Tuple_impl.123" = type { %"struct.std::_Head_base.124" }
%"struct.std::_Head_base.124" = type { i8 }
%"struct.std::_Head_base.125" = type { i8 }
%"class.testing::internal::TestFactoryBase" = type { ptr }
%"class.testing::internal::ParameterizedTestFactory.530" = type <{ %"class.testing::internal::TestFactoryBase", %"class.std::tuple.121", [6 x i8] }>

; Function Attrs: mustprogress nounwind uwtable
define linkonce_odr dso_local void @_ZN7testing8internal15TestFactoryBaseC2Ev(ptr noundef nonnull align 8 dereferenceable(8) %this) unnamed_addr #5 comdat align 2 {
entry:
  %this.addr = alloca ptr, align 8
  store ptr %this, ptr %this.addr, align 8
  %this1 = load ptr, ptr %this.addr, align 8
  store ptr getelementptr inbounds ({ [5 x ptr] }, ptr @_ZTVN7testing8internal15TestFactoryBaseE, i32 0, i32 0, i32 2), ptr %this1, align 8
  ret void
}

; Function Attrs: mustprogress nounwind uwtable
define internal void @_ZN7testing8internal24ParameterizedTestFactoryIN4absl13cord_internal12_GLOBAL__N_164CordRepBtreeDualTest_MergeLeafWithTreeExceedingLeafCapacity_TestEEC2ESt5tupleIJbbEE(ptr noundef nonnull align 8 dereferenceable(10) %this, ptr noundef %parameter) unnamed_addr #5 align 2 {
entry:
  %this.addr = alloca ptr, align 8
  %parameter.indirect_addr = alloca ptr, align 8
  store ptr %this, ptr %this.addr, align 8
  store ptr %parameter, ptr %parameter.indirect_addr, align 8
  %this1 = load ptr, ptr %this.addr, align 8
  call void @_ZN7testing8internal15TestFactoryBaseC2Ev(ptr noundef nonnull align 8 dereferenceable(8) %this1)
  store ptr getelementptr inbounds ({ [5 x ptr] }, ptr @_ZTVN7testing8internal24ParameterizedTestFactoryIN4absl13cord_internal12_GLOBAL__N_164CordRepBtreeDualTest_MergeLeafWithTreeExceedingLeafCapacity_TestEEE, i32 0, i32 0, i32 2), ptr %this1, align 8
  %parameter_ = getelementptr inbounds %"class.testing::internal::ParameterizedTestFactory.530", ptr %this1, i32 0, i32 1
  call void @llvm.memcpy.p0.p0.i64(ptr align 8 %parameter_, ptr align 1 %parameter, i64 2, i1 false)
  ret void
}

; Function Attrs: mustprogress uwtable
define internal noundef ptr @_ZN7testing8internal15TestMetaFactoryIN4absl13cord_internal12_GLOBAL__N_164CordRepBtreeDualTest_MergeLeafWithTreeExceedingLeafCapacity_TestEE17CreateTestFactoryESt5tupleIJbbEE(ptr noundef nonnull align 8 dereferenceable(8) %this, ptr noundef %parameter) unnamed_addr #4 align 2 personality ptr @__gxx_personality_v0 {
entry:
  %this.addr = alloca ptr, align 8
  %parameter.indirect_addr = alloca ptr, align 8
  %agg.tmp = alloca %"class.std::tuple.121", align 1
  %exn.slot = alloca ptr, align 8
  %ehselector.slot = alloca i32, align 4
  store ptr %this, ptr %this.addr, align 8
  store ptr %parameter, ptr %parameter.indirect_addr, align 8
  %call = call noalias noundef nonnull ptr @_Znwm(i64 noundef 16) #21
  call void @llvm.memcpy.p0.p0.i64(ptr align 1 %agg.tmp, ptr align 1 %parameter, i64 2, i1 false)
  invoke void @_ZN7testing8internal24ParameterizedTestFactoryIN4absl13cord_internal12_GLOBAL__N_164CordRepBtreeDualTest_MergeLeafWithTreeExceedingLeafCapacity_TestEEC2ESt5tupleIJbbEE(ptr noundef nonnull align 8 dereferenceable(10) %call, ptr noundef %agg.tmp)
          to label %invoke.cont unwind label %lpad

invoke.cont:                                      ; preds = %entry
  ret ptr %call

lpad:                                             ; preds = %entry
  %0 = landingpad { ptr, i32 }
          cleanup
  %1 = extractvalue { ptr, i32 } %0, 0
  store ptr %1, ptr %exn.slot, align 8
  %2 = extractvalue { ptr, i32 } %0, 1
  store i32 %2, ptr %ehselector.slot, align 4
  call void @_ZdlPv(ptr noundef %call) #22
  br label %eh.resume

eh.resume:                                        ; preds = %lpad
  %exn = load ptr, ptr %exn.slot, align 8
  %sel = load i32, ptr %ehselector.slot, align 4
  %lpad.val = insertvalue { ptr, i32 } poison, ptr %exn, 0
  %lpad.val2 = insertvalue { ptr, i32 } %lpad.val, i32 %sel, 1
  resume { ptr, i32 } %lpad.val2
}