; Function Attrs: mustprogress uwtable
define internal noalias noundef nonnull ptr @_ZN7testing8internal15TestMetaFactoryIN4absl13cord_internal12_GLOBAL__N_164CordRepBtreeDualTest_MergeLeafWithTreeExceedingLeafCapacity_TestEE17CreateTestFactoryESt5tupleIJbbEE(ptr nocapture nonnull readnone align 8 %this, ptr nocapture noundef readonly %parameter) unnamed_addr #3 align 2 personality ptr @__gxx_personality_v0 {
entry:
  %call = tail call noalias noundef nonnull dereferenceable(16) ptr @_Znwm(i64 noundef 16) #30
  %0 = load i16, ptr %parameter, align 1
  store ptr getelementptr inbounds ({ [5 x ptr] }, ptr @_ZTVN7testing8internal24ParameterizedTestFactoryIN4absl13cord_internal12_GLOBAL__N_164CordRepBtreeDualTest_MergeLeafWithTreeExceedingLeafCapacity_TestEEE, i64 0, i32 0, i64 2), ptr %call, align 8
  %parameter_.i = getelementptr inbounds i8, ptr %call, i64 8
  store i16 %0, ptr %parameter_.i, align 8
  ret ptr %call
}